; ModuleID = '54/285.c'
source_filename = "54/285.c"
target datalayout = "e-m:e-p270:32:32-p271:32:32-p272:64:64-i64:64-f80:128-n8:16:32:64-S128"
target triple = "x86_64-pc-linux-gnu"

@.str = private unnamed_addr constant [6 x i8] c"%d %d\00", align 1
@.str.1 = private unnamed_addr constant [3 x i8] c"%d\00", align 1

; Function Attrs: noinline nounwind uwtable
define dso_local i32 @main() #0 {
  %1 = alloca i32, align 4
  %2 = alloca i32, align 4
  %3 = alloca i32, align 4
  %4 = alloca i32, align 4
  %5 = alloca i32, align 4
  %6 = alloca i32, align 4
  store i32 0, i32* %1, align 4
  store i32 1, i32* %5, align 4
  %7 = call i32 (i8*, ...) @__isoc99_scanf(i8* getelementptr inbounds ([6 x i8], [6 x i8]* @.str, i64 0, i64 0), i32* %2, i32* %3)
  store i32 1, i32* %5, align 4
  br label %8

8:                                                ; preds = %52, %0
  %9 = load i32, i32* %5, align 4
  %10 = icmp sgt i32 %9, 0
  br i1 %10, label %11, label %55

11:                                               ; preds = %8
  %12 = load i32, i32* %5, align 4
  %13 = load i32, i32* %2, align 4
  %14 = mul nsw i32 %12, %13
  %15 = load i32, i32* %3, align 4
  %16 = add nsw i32 %14, %15
  store i32 %16, i32* %4, align 4
  store i32 1, i32* %6, align 4
  br label %17

17:                                               ; preds = %40, %11
  %18 = load i32, i32* %6, align 4
  %19 = load i32, i32* %2, align 4
  %20 = icmp slt i32 %18, %19
  br i1 %20, label %21, label %43

21:                                               ; preds = %17
  %22 = load i32, i32* %4, align 4
  %23 = load i32, i32* %2, align 4
  %24 = sub nsw i32 %23, 1
  %25 = srem i32 %22, %24
  %26 = icmp eq i32 %25, 0
  br i1 %26, label %27, label %36

27:                                               ; preds = %21
  %28 = load i32, i32* %4, align 4
  %29 = load i32, i32* %2, align 4
  %30 = mul nsw i32 %28, %29
  %31 = load i32, i32* %2, align 4
  %32 = sub nsw i32 %31, 1
  %33 = sdiv i32 %30, %32
  %34 = load i32, i32* %3, align 4
  %35 = add nsw i32 %33, %34
  store i32 %35, i32* %4, align 4
  br label %39

36:                                               ; preds = %21
  %37 = load i32, i32* %5, align 4
  %38 = sub nsw i32 0, %37
  store i32 %38, i32* %5, align 4
  br label %43

39:                                               ; preds = %27
  br label %40

40:                                               ; preds = %39
  %41 = load i32, i32* %6, align 4
  %42 = add nsw i32 %41, 1
  store i32 %42, i32* %6, align 4
  br label %17

43:                                               ; preds = %36, %17
  %44 = load i32, i32* %5, align 4
  %45 = icmp sgt i32 %44, 0
  br i1 %45, label %46, label %49

46:                                               ; preds = %43
  %47 = load i32, i32* %4, align 4
  %48 = call i32 (i8*, ...) @printf(i8* getelementptr inbounds ([3 x i8], [3 x i8]* @.str.1, i64 0, i64 0), i32 %47)
  br label %49

49:                                               ; preds = %46, %43
  %50 = load i32, i32* %5, align 4
  %51 = sub nsw i32 0, %50
  store i32 %51, i32* %5, align 4
  br label %52

52:                                               ; preds = %49
  %53 = load i32, i32* %5, align 4
  %54 = add nsw i32 %53, 1
  store i32 %54, i32* %5, align 4
  br label %8

55:                                               ; preds = %8
  %56 = load i32, i32* %1, align 4
  ret i32 %56
}

declare dso_local i32 @__isoc99_scanf(i8*, ...) #1

declare dso_local i32 @printf(i8*, ...) #1


!llvm.module.flags = !{!0}
!llvm.ident = !{!1}

!0 = !{i32 1, !"wchar_size", i32 4}
!1 = !{!"clang version 10.0.0-4ubuntu1 "}
