; ModuleID = 'source-C-CXX/53/285.c'
source_filename = "source-C-CXX/53/285.c"
target datalayout = "e-m:e-p270:32:32-p271:32:32-p272:64:64-i64:64-f80:128-n8:16:32:64-S128"
target triple = "x86_64-pc-linux-gnu"

@.str = private unnamed_addr constant [6 x i8] c"%d %d\00", align 1
@.str.1 = private unnamed_addr constant [3 x i8] c"%d\00", align 1

; Function Attrs: nofree nounwind sspstrong uwtable
define dso_local i32 @main() local_unnamed_addr #0 {
  %1 = alloca i32, align 4
  %2 = alloca i32, align 4
  %3 = bitcast i32* %1 to i8*
  call void @llvm.lifetime.start.p0i8(i64 4, i8* nonnull %3) #3
  %4 = bitcast i32* %2 to i8*
  call void @llvm.lifetime.start.p0i8(i64 4, i8* nonnull %4) #3
  %5 = call i32 (i8*, ...) @__isoc99_scanf(i8* getelementptr inbounds ([6 x i8], [6 x i8]* @.str, i64 0, i64 0), i32* nonnull %1, i32* nonnull %2)
  br label %6

6:                                                ; preds = %0, %35
  %7 = phi i32 [ 1, %0 ], [ %37, %35 ]
  %8 = load i32, i32* %1, align 4, !tbaa !5
  %9 = mul nsw i32 %8, %7
  %10 = load i32, i32* %2, align 4, !tbaa !5
  %11 = add nsw i32 %8, -1
  %12 = add nsw i32 %9, %10
  %13 = icmp sgt i32 %8, 1
  br i1 %13, label %14, label %31

14:                                               ; preds = %6, %19
  %15 = phi i32 [ %23, %19 ], [ %12, %6 ]
  %16 = phi i32 [ %22, %19 ], [ 1, %6 ]
  %17 = srem i32 %15, %11
  %18 = icmp eq i32 %17, 0
  br i1 %18, label %19, label %25

19:                                               ; preds = %14
  %20 = mul nsw i32 %15, %8
  %21 = sdiv i32 %20, %11
  %22 = add nuw nsw i32 %16, 1
  %23 = add nsw i32 %21, %10
  %24 = icmp eq i32 %22, %8
  br i1 %24, label %27, label %14, !llvm.loop !9

25:                                               ; preds = %14
  %26 = sub nsw i32 0, %7
  br label %27

27:                                               ; preds = %19, %25
  %28 = phi i32 [ %15, %25 ], [ %23, %19 ]
  %29 = phi i32 [ %26, %25 ], [ %7, %19 ]
  %30 = icmp sgt i32 %29, 0
  br i1 %30, label %31, label %35

31:                                               ; preds = %6, %27
  %32 = phi i32 [ %29, %27 ], [ %7, %6 ]
  %33 = phi i32 [ %28, %27 ], [ %12, %6 ]
  %34 = call i32 (i8*, ...) @printf(i8* nonnull dereferenceable(1) getelementptr inbounds ([3 x i8], [3 x i8]* @.str.1, i64 0, i64 0), i32 %33)
  br label %35

35:                                               ; preds = %31, %27
  %36 = phi i32 [ %32, %31 ], [ %29, %27 ]
  %37 = sub i32 1, %36
  %38 = icmp sgt i32 %37, 0
  br i1 %38, label %6, label %39, !llvm.loop !11

39:                                               ; preds = %35
  call void @llvm.lifetime.end.p0i8(i64 4, i8* nonnull %4) #3
  call void @llvm.lifetime.end.p0i8(i64 4, i8* nonnull %3) #3
  ret i32 0
}

; Function Attrs: argmemonly mustprogress nofree nosync nounwind willreturn
declare void @llvm.lifetime.start.p0i8(i64 immarg, i8* nocapture) #1

; Function Attrs: nofree nounwind
declare noundef i32 @__isoc99_scanf(i8* nocapture noundef readonly, ...) local_unnamed_addr #2

; Function Attrs: nofree nounwind
declare noundef i32 @printf(i8* nocapture noundef readonly, ...) local_unnamed_addr #2

; Function Attrs: argmemonly mustprogress nofree nosync nounwind willreturn
declare void @llvm.lifetime.end.p0i8(i64 immarg, i8* nocapture) #1


!llvm.module.flags = !{!0, !1, !2, !3}
!llvm.ident = !{!4}

!0 = !{i32 1, !"wchar_size", i32 4}
!1 = !{i32 7, !"PIC Level", i32 2}
!2 = !{i32 7, !"PIE Level", i32 2}
!3 = !{i32 7, !"uwtable", i32 1}
!4 = !{!"clang version 13.0.0"}
!5 = !{!6, !6, i64 0}
!6 = !{!"int", !7, i64 0}
!7 = !{!"omnipotent char", !8, i64 0}
!8 = !{!"Simple C/C++ TBAA"}
!9 = distinct !{!9, !10}
!10 = !{!"llvm.loop.mustprogress"}
!11 = distinct !{!11, !10}
